target datalayout = "e-m:e-p270:32:32-p271:32:32-p272:64:64-i64:64-i128:128-f80:128-n8:16:32:64-S128"
target triple = "x86_64-pc-linux-gnu"

%struct.SwsPass = type { ptr, ptr, i32, i32, i32, i32, i32, ptr, %struct.SwsImg, ptr, ptr, ptr }
%struct.SwsImg = type { i32, [4 x ptr], [4 x i32] }
%struct.SwsGraph = type { ptr, ptr, i32, i8, i8, ptr, i32, %struct.SwsContext, %struct.SwsFormat, %struct.SwsFormat, i32, %struct.anon }
%struct.SwsContext = type { ptr, ptr, i32, [2 x double], i32, i32, i32, i32, i32, i32, i32, i32, i32, i32, i32, i32, i32, i32, i32, i32, i32 }
%struct.SwsFormat = type { i32, i32, i32, i32, i32, i32, i32, ptr, %struct.SwsColor }
%struct.SwsColor = type { i32, i32, %struct.AVPrimaryCoefficients, %struct.AVRational, %struct.AVRational, %struct.AVRational, %struct.AVRational }
%struct.AVPrimaryCoefficients = type { %struct.AVCIExy, %struct.AVCIExy, %struct.AVCIExy }
%struct.AVCIExy = type { %struct.AVRational, %struct.AVRational }
%struct.AVRational = type { i32, i32 }
%struct.anon = type { ptr, %struct.SwsImg, %struct.SwsImg }

; Function Attrs: nounwind uwtable
define void @ff_sws_graph_run(ptr noundef %0, ptr noundef %1, ptr noundef %2, ptr noundef %3, ptr noundef %4) #0 {
  %6 = alloca ptr, align 8
  %7 = alloca ptr, align 8
  %8 = alloca ptr, align 8
  %9 = alloca ptr, align 8
  %10 = alloca ptr, align 8
  %11 = alloca ptr, align 8
  %12 = alloca ptr, align 8
  %13 = alloca i32, align 4
  %14 = alloca ptr, align 8
  store ptr %0, ptr %6, align 8, !tbaa !4
  store ptr %1, ptr %7, align 8, !tbaa !84
  store ptr %2, ptr %8, align 8, !tbaa !86
  store ptr %3, ptr %9, align 8, !tbaa !84
  store ptr %4, ptr %10, align 8, !tbaa !86
  call void @llvm.lifetime.start.p0(i64 8, ptr %11) #11
  %15 = load ptr, ptr %6, align 8, !tbaa !4
  %16 = getelementptr inbounds nuw %struct.SwsGraph, ptr %15, i32 0, i32 11
  %17 = getelementptr inbounds nuw %struct.anon, ptr %16, i32 0, i32 2
  store ptr %17, ptr %11, align 8, !tbaa !59
  call void @llvm.lifetime.start.p0(i64 8, ptr %12) #11
  %18 = load ptr, ptr %6, align 8, !tbaa !4
  %19 = getelementptr inbounds nuw %struct.SwsGraph, ptr %18, i32 0, i32 11
  %20 = getelementptr inbounds nuw %struct.anon, ptr %19, i32 0, i32 1
  store ptr %20, ptr %12, align 8, !tbaa !59
  %21 = load ptr, ptr %11, align 8, !tbaa !59
  %22 = getelementptr inbounds nuw %struct.SwsImg, ptr %21, i32 0, i32 1
  %23 = getelementptr inbounds [4 x ptr], ptr %22, i64 0, i64 0
  %24 = load ptr, ptr %7, align 8, !tbaa !84
  call void @llvm.memcpy.p0.p0.i64(ptr align 8 %23, ptr align 8 %24, i64 32, i1 false)
  %25 = load ptr, ptr %11, align 8, !tbaa !59
  %26 = getelementptr inbounds nuw %struct.SwsImg, ptr %25, i32 0, i32 2
  %27 = getelementptr inbounds [4 x i32], ptr %26, i64 0, i64 0
  %28 = load ptr, ptr %8, align 8, !tbaa !86
  call void @llvm.memcpy.p0.p0.i64(ptr align 8 %27, ptr align 4 %28, i64 16, i1 false)
  %29 = load ptr, ptr %12, align 8, !tbaa !59
  %30 = getelementptr inbounds nuw %struct.SwsImg, ptr %29, i32 0, i32 1
  %31 = getelementptr inbounds [4 x ptr], ptr %30, i64 0, i64 0
  %32 = load ptr, ptr %9, align 8, !tbaa !84
  call void @llvm.memcpy.p0.p0.i64(ptr align 8 %31, ptr align 8 %32, i64 32, i1 false)
  %33 = load ptr, ptr %12, align 8, !tbaa !59
  %34 = getelementptr inbounds nuw %struct.SwsImg, ptr %33, i32 0, i32 2
  %35 = getelementptr inbounds [4 x i32], ptr %34, i64 0, i64 0
  %36 = load ptr, ptr %10, align 8, !tbaa !86
  call void @llvm.memcpy.p0.p0.i64(ptr align 8 %35, ptr align 4 %36, i64 16, i1 false)
  call void @llvm.lifetime.start.p0(i64 4, ptr %13) #11
  store i32 0, ptr %13, align 4, !tbaa !9
  br label %37

37:                                               ; preds = %74, %5
  %38 = load i32, ptr %13, align 4, !tbaa !9
  %39 = load ptr, ptr %6, align 8, !tbaa !4
  %40 = getelementptr inbounds nuw %struct.SwsGraph, ptr %39, i32 0, i32 6
  %41 = load i32, ptr %40, align 8, !tbaa !65
  %42 = icmp slt i32 %38, %41
  br i1 %42, label %44, label %43

43:                                               ; preds = %37
  call void @llvm.lifetime.end.p0(i64 4, ptr %13) #11
  br label %77

44:                                               ; preds = %37
  call void @llvm.lifetime.start.p0(i64 8, ptr %14) #11
  %45 = load ptr, ptr %6, align 8, !tbaa !4
  %46 = getelementptr inbounds nuw %struct.SwsGraph, ptr %45, i32 0, i32 5
  %47 = load ptr, ptr %46, align 8, !tbaa !66
  %48 = load i32, ptr %13, align 4, !tbaa !9
  %49 = sext i32 %48 to i64
  %50 = getelementptr inbounds ptr, ptr %47, i64 %49
  %51 = load ptr, ptr %50, align 8, !tbaa !11
  store ptr %51, ptr %14, align 8, !tbaa !11
  %52 = load ptr, ptr %14, align 8, !tbaa !11
  %53 = load ptr, ptr %6, align 8, !tbaa !4
  %54 = getelementptr inbounds nuw %struct.SwsGraph, ptr %53, i32 0, i32 11
  %55 = getelementptr inbounds nuw %struct.anon, ptr %54, i32 0, i32 0
  store ptr %52, ptr %55, align 8, !tbaa !58
  %56 = load ptr, ptr %14, align 8, !tbaa !11
  %57 = getelementptr inbounds nuw %struct.SwsPass, ptr %56, i32 0, i32 9
  %58 = load ptr, ptr %57, align 8, !tbaa !88
  %59 = icmp ne ptr %58, null
  br i1 %59, label %60, label %67

60:                                               ; preds = %44
  %61 = load ptr, ptr %14, align 8, !tbaa !11
  %62 = getelementptr inbounds nuw %struct.SwsPass, ptr %61, i32 0, i32 9
  %63 = load ptr, ptr %62, align 8, !tbaa !88
  %64 = load ptr, ptr %11, align 8, !tbaa !59
  %65 = load ptr, ptr %12, align 8, !tbaa !59
  %66 = load ptr, ptr %14, align 8, !tbaa !11
  call void %63(ptr noundef %64, ptr noundef %65, ptr noundef %66)
  br label %67

67:                                               ; preds = %60, %44
  %68 = load ptr, ptr %6, align 8, !tbaa !4
  %69 = getelementptr inbounds nuw %struct.SwsGraph, ptr %68, i32 0, i32 1
  %70 = load ptr, ptr %69, align 8, !tbaa !89
  %71 = load ptr, ptr %14, align 8, !tbaa !11
  %72 = getelementptr inbounds nuw %struct.SwsPass, ptr %71, i32 0, i32 6
  %73 = load i32, ptr %72, align 8, !tbaa !25
  call void @avpriv_slicethread_execute(ptr noundef %70, i32 noundef %73, i32 noundef 0)
  call void @llvm.lifetime.end.p0(i64 8, ptr %14) #11
  br label %74

74:                                               ; preds = %67
  %75 = load i32, ptr %13, align 4, !tbaa !9
  %76 = add nsw i32 %75, 1
  store i32 %76, ptr %13, align 4, !tbaa !9
  br label %37, !llvm.loop !90

77:                                               ; preds = %43
  call void @llvm.lifetime.end.p0(i64 8, ptr %12) #11
  call void @llvm.lifetime.end.p0(i64 8, ptr %11) #11
  ret void
}