; Function Attrs: nounwind uwtable
define void @ff_sws_graph_run(ptr noundef initializes((432, 480), (488, 536)) %0, ptr noundef readonly captures(none) %1, ptr noundef readonly captures(none) %2, ptr noundef readonly captures(none) %3, ptr noundef readonly captures(none) %4) local_unnamed_addr #0 {
  %6 = getelementptr inbounds nuw i8, ptr %0, i64 416
  %7 = getelementptr inbounds nuw i8, ptr %0, i64 480
  %8 = getelementptr inbounds nuw i8, ptr %0, i64 424
  %9 = getelementptr inbounds nuw i8, ptr %0, i64 488
  tail call void @llvm.memcpy.p0.p0.i64(ptr noundef nonnull align 8 dereferenceable(32) %9, ptr noundef nonnull align 8 dereferenceable(32) %1, i64 32, i1 false)
  %10 = getelementptr inbounds nuw i8, ptr %0, i64 520
  tail call void @llvm.memcpy.p0.p0.i64(ptr noundef nonnull align 8 dereferenceable(16) %10, ptr noundef nonnull align 4 dereferenceable(16) %2, i64 16, i1 false)
  %11 = getelementptr inbounds nuw i8, ptr %0, i64 432
  tail call void @llvm.memcpy.p0.p0.i64(ptr noundef nonnull align 8 dereferenceable(32) %11, ptr noundef nonnull align 8 dereferenceable(32) %3, i64 32, i1 false)
  %12 = getelementptr inbounds nuw i8, ptr %0, i64 464
  tail call void @llvm.memcpy.p0.p0.i64(ptr noundef nonnull align 8 dereferenceable(16) %12, ptr noundef nonnull align 4 dereferenceable(16) %4, i64 16, i1 false)
  %13 = getelementptr inbounds nuw i8, ptr %0, i64 32
  %14 = load i32, ptr %13, align 8, !tbaa !73
  %15 = icmp sgt i32 %14, 0
  br i1 %15, label %.lr.ph, label %._crit_edge

.lr.ph:                                           ; preds = %5
  %16 = getelementptr inbounds nuw i8, ptr %0, i64 24
  %17 = getelementptr inbounds nuw i8, ptr %0, i64 8
  br label %18

._crit_edge:                                      ; preds = %25, %5
  ret void

18:                                               ; preds = %.lr.ph, %25
  %indvars.iv = phi i64 [ 0, %.lr.ph ], [ %indvars.iv.next, %25 ]
  %19 = load ptr, ptr %16, align 8, !tbaa !74
  %20 = getelementptr inbounds nuw ptr, ptr %19, i64 %indvars.iv
  %21 = load ptr, ptr %20, align 8, !tbaa !4
  store ptr %21, ptr %6, align 8, !tbaa !72
  %22 = getelementptr inbounds nuw i8, ptr %21, i64 104
  %23 = load ptr, ptr %22, align 8, !tbaa !69
  %.not = icmp eq ptr %23, null
  br i1 %.not, label %25, label %24

24:                                               ; preds = %18
  tail call void %23(ptr noundef nonnull %7, ptr noundef nonnull %8, ptr noundef nonnull %21) #12
  br label %25

25:                                               ; preds = %24, %18
  %26 = load ptr, ptr %17, align 8, !tbaa !92
  %27 = getelementptr inbounds nuw i8, ptr %21, i64 32
  %28 = load i32, ptr %27, align 8, !tbaa !21
  tail call void @avpriv_slicethread_execute(ptr noundef %26, i32 noundef %28, i32 noundef 0) #12
  %indvars.iv.next = add nuw nsw i64 %indvars.iv, 1
  %29 = load i32, ptr %13, align 8, !tbaa !73
  %30 = sext i32 %29 to i64
  %31 = icmp slt i64 %indvars.iv.next, %30
  br i1 %31, label %18, label %._crit_edge, !llvm.loop !93
}